target datalayout = "e-m:e-p270:32:32-p271:32:32-p272:64:64-i64:64-i128:128-f80:128-n8:16:32:64-S128"
target triple = "x86_64-pc-linux-gnu"

%struct.list = type { ptr, ptr, ptr, ptr, ptr, i64 }

@lazyfree_objects = internal global i64 0, align 8
@lazyfreed_objects = internal global i64 0, align 8

; Function Attrs: nounwind uwtable
define dso_local void @lazyFreeReplicationBacklogRefMem(ptr noundef %0) #0 {
  %2 = alloca ptr, align 8
  %3 = alloca ptr, align 8
  %4 = alloca ptr, align 8
  %5 = alloca i64, align 8
  %6 = alloca i64, align 8
  %7 = alloca i64, align 8
  %8 = alloca i64, align 8
  %9 = alloca i64, align 8
  store ptr %0, ptr %2, align 8, !tbaa !5
  call void @llvm.lifetime.start.p0(i64 8, ptr %3) #7
  %10 = load ptr, ptr %2, align 8, !tbaa !5
  %11 = getelementptr inbounds ptr, ptr %10, i64 0
  %12 = load ptr, ptr %11, align 8, !tbaa !5
  store ptr %12, ptr %3, align 8, !tbaa !19
  call void @llvm.lifetime.start.p0(i64 8, ptr %4) #7
  %13 = load ptr, ptr %2, align 8, !tbaa !5
  %14 = getelementptr inbounds ptr, ptr %13, i64 1
  %15 = load ptr, ptr %14, align 8, !tbaa !5
  store ptr %15, ptr %4, align 8, !tbaa !15
  call void @llvm.lifetime.start.p0(i64 8, ptr %5) #7
  %16 = load ptr, ptr %3, align 8, !tbaa !19
  %17 = getelementptr inbounds nuw %struct.list, ptr %16, i32 0, i32 5
  %18 = load i64, ptr %17, align 8, !tbaa !27
  store i64 %18, ptr %5, align 8, !tbaa !23
  %19 = load ptr, ptr %4, align 8, !tbaa !15
  %20 = call i64 @raxSize(ptr noundef %19)
  %21 = load i64, ptr %5, align 8, !tbaa !23
  %22 = add i64 %21, %20
  store i64 %22, ptr %5, align 8, !tbaa !23
  %23 = load ptr, ptr %3, align 8, !tbaa !19
  call void @listRelease(ptr noundef %23)
  %24 = load ptr, ptr %4, align 8, !tbaa !15
  call void @raxFree(ptr noundef %24)
  %25 = load i64, ptr %5, align 8, !tbaa !23
  store i64 %25, ptr %6, align 8, !tbaa !11
  %26 = load i64, ptr %6, align 8
  %27 = atomicrmw sub ptr @lazyfree_objects, i64 %26 monotonic, align 8
  store i64 %27, ptr %7, align 8
  %28 = load i64, ptr %5, align 8, !tbaa !23
  store i64 %28, ptr %8, align 8, !tbaa !11
  %29 = load i64, ptr %8, align 8
  %30 = atomicrmw add ptr @lazyfreed_objects, i64 %29 monotonic, align 8
  store i64 %30, ptr %9, align 8
  call void @llvm.lifetime.end.p0(i64 8, ptr %5) #7
  call void @llvm.lifetime.end.p0(i64 8, ptr %4) #7
  call void @llvm.lifetime.end.p0(i64 8, ptr %3) #7
  ret void
}