; Function Attrs: nounwind uwtable
define dso_local void @lazyFreeReplicationBacklogRefMem(ptr noundef readonly captures(none) %0) #0 {
  %2 = load ptr, ptr %0, align 8, !tbaa !5
  %3 = getelementptr inbounds nuw i8, ptr %0, i64 8
  %4 = load ptr, ptr %3, align 8, !tbaa !5
  %5 = getelementptr inbounds nuw i8, ptr %2, i64 40
  %6 = load i64, ptr %5, align 8, !tbaa !11
  %7 = tail call i64 @raxSize(ptr noundef %4) #6
  %8 = add i64 %7, %6
  tail call void @listRelease(ptr noundef %2) #6
  tail call void @raxFree(ptr noundef %4) #6
  %9 = atomicrmw sub ptr @lazyfree_objects, i64 %8 monotonic, align 8
  %10 = atomicrmw add ptr @lazyfreed_objects, i64 %8 monotonic, align 8
  ret void
}